(dp1
S'first_name'
p2
(dp3
S'length'
p4
I128
sS'unique'
p5
I00
sS'sortable'
p6
I2
sS'sql'
p7
S'CHAR(128)'
p8
sS'notnull'
p9
I00
sS'type'
p10
S'string'
p11
ssS'last_name'
p12
(dp13
g4
I128
sg5
I00
sg6
I3
sg7
S'CHAR(128)'
p14
sg9
I00
sg10
g11
<<<<<<< HEAD
ssS'dob'
=======
ssS'registration_id'
>>>>>>> 8c17d96631acda612391d7ce0fbf6394014a3db3
p15
(dp16
g4
I512
sg5
I00
sg6
<<<<<<< HEAD
I11
sg7
S'DATE'
p17
sg9
I00
sg10
S'date'
p18
ssS'gender'
p19
(dp20
g4
I512
sg5
I00
sg6
I12
sg7
S'CHAR(512)'
p21
sg9
I00
sg10
g11
ssS'wallet_amount'
p22
(dp23
g4
I512
sg5
I00
sg6
I13
sg7
S'INTEGER'
p24
sg9
I00
sg10
S'integer'
p25
ssS'registration_id'
p26
(dp27
g4
I512
sg5
I00
sg6
I8
sg7
S'CHAR(512)'
p28
=======
I8
sg7
S'CHAR(512)'
p17
>>>>>>> 8c17d96631acda612391d7ce0fbf6394014a3db3
sg9
I00
sg10
g11
ssS'email'
<<<<<<< HEAD
p29
(dp30
=======
p18
(dp19
>>>>>>> 8c17d96631acda612391d7ce0fbf6394014a3db3
g4
I512
sg5
I00
sg6
I4
sg7
S'CHAR(512)'
<<<<<<< HEAD
p31
sg9
I00
sg10
g11
ssS'contact_no'
p32
(dp33
g4
I512
sg5
I00
sg6
I9
sg7
S'CHAR(512)'
p34
=======
p20
>>>>>>> 8c17d96631acda612391d7ce0fbf6394014a3db3
sg9
I00
sg10
g11
ssS'reset_password_key'
<<<<<<< HEAD
p35
(dp36
=======
p21
(dp22
>>>>>>> 8c17d96631acda612391d7ce0fbf6394014a3db3
g4
I512
sg5
I00
sg6
I7
sg7
S'CHAR(512)'
<<<<<<< HEAD
p37
sg9
I00
sg10
g11
ssS'address'
p38
(dp39
g4
I512
sg5
I00
sg6
I10
sg7
S'CHAR(512)'
p40
=======
p23
>>>>>>> 8c17d96631acda612391d7ce0fbf6394014a3db3
sg9
I00
sg10
g11
ssS'password'
<<<<<<< HEAD
p41
(dp42
=======
p24
(dp25
>>>>>>> 8c17d96631acda612391d7ce0fbf6394014a3db3
g4
I512
sg5
I00
sg6
I5
sg7
S'CHAR(512)'
<<<<<<< HEAD
p43
sg9
I00
sg10
S'password'
p44
ssS'registration_key'
p45
(dp46
=======
p26
sg9
I00
sg10
g24
ssS'registration_key'
p27
(dp28
>>>>>>> 8c17d96631acda612391d7ce0fbf6394014a3db3
g4
I512
sg5
I00
sg6
I6
sg7
S'CHAR(512)'
<<<<<<< HEAD
p47
=======
p29
>>>>>>> 8c17d96631acda612391d7ce0fbf6394014a3db3
sg9
I00
sg10
g11
ssS'id'
<<<<<<< HEAD
p48
(dp49
=======
p30
(dp31
>>>>>>> 8c17d96631acda612391d7ce0fbf6394014a3db3
g4
I512
sg5
I00
sg6
I1
sg7
S'INTEGER PRIMARY KEY AUTOINCREMENT'
<<<<<<< HEAD
p50
sg9
I00
sg10
S'id'
p51
=======
p32
sg9
I00
sg10
g30
>>>>>>> 8c17d96631acda612391d7ce0fbf6394014a3db3
ss.